; Function Attrs: mustprogress nounwind uwtable
define dso_local void @_ZN4node8Watchdog5TimerEP10uv_timer_s(ptr noundef %timer) #3 align 2 {
entry:
  %0 = ptrtoint ptr %timer to i64
  %sub.i.i = add i64 %0, -992
  %1 = inttoptr i64 %sub.i.i to ptr
  %timed_out_ = getelementptr inbounds i8, ptr %1, i64 1144
  %2 = load ptr, ptr %timed_out_, align 8
  store i8 1, ptr %2, align 1
  %3 = load ptr, ptr %1, align 8
  tail call void @_ZN2v87Isolate18TerminateExecutionEv(ptr noundef nonnull align 1 dereferenceable(1) %3) #15
  %loop_ = getelementptr inbounds i8, ptr %1, i64 16
  tail call void @uv_stop(ptr noundef nonnull %loop_) #15
  ret void
}